; Function Attrs: nounwind uwtable
define ptr @l_Lean_Server_findModuleRefs___lambda__1___boxed(ptr noundef %0, ptr noundef %1) #0 {
  %3 = getelementptr i8, ptr %0, i64 8
  %.val.i = load i64, ptr %3, align 8, !tbaa !13
  %.mask.i = and i64 %.val.i, 9223372036854775807
  %.not.i8 = icmp eq i64 %.mask.i, 0
  br i1 %.not.i8, label %l_Lean_Server_findModuleRefs___lambda__1.exit, label %lean_dec.exit.i

lean_dec.exit.i:                                  ; preds = %2
  %4 = tail call ptr @l_Array_foldlMUnsafe_fold___at_Lean_Server_findModuleRefs___spec__1(ptr noundef nonnull readonly %0, i64 noundef 0, i64 noundef %.mask.i, ptr noundef nonnull inttoptr (i64 3 to ptr))
  br label %l_Lean_Server_findModuleRefs___lambda__1.exit

l_Lean_Server_findModuleRefs___lambda__1.exit:    ; preds = %2, %lean_dec.exit.i
  %.0.i = phi ptr [ %4, %lean_dec.exit.i ], [ inttoptr (i64 3 to ptr), %2 ]
  %5 = ptrtoint ptr %1 to i64
  %6 = and i64 %5, 1
  %.not = icmp eq i64 %6, 0
  br i1 %.not, label %7, label %lean_dec.exit5

7:                                                ; preds = %l_Lean_Server_findModuleRefs___lambda__1.exit
  %8 = load i32, ptr %1, align 4, !tbaa !8
  %9 = icmp sgt i32 %8, 1
  br i1 %9, label %10, label %12, !prof !11

10:                                               ; preds = %7
  %11 = add nsw i32 %8, -1
  store i32 %11, ptr %1, align 4, !tbaa !8
  br label %lean_dec.exit5

12:                                               ; preds = %7
  %.not.i = icmp eq i32 %8, 0
  br i1 %.not.i, label %lean_dec.exit5, label %13

13:                                               ; preds = %12
  tail call void @lean_dec_ref_cold(ptr noundef nonnull %1) #8
  br label %lean_dec.exit5

lean_dec.exit5:                                   ; preds = %13, %12, %10, %l_Lean_Server_findModuleRefs___lambda__1.exit
  %14 = ptrtoint ptr %0 to i64
  %15 = and i64 %14, 1
  %.not9 = icmp eq i64 %15, 0
  br i1 %.not9, label %16, label %lean_dec.exit

16:                                               ; preds = %lean_dec.exit5
  %17 = load i32, ptr %0, align 4, !tbaa !8
  %18 = icmp sgt i32 %17, 1
  br i1 %18, label %19, label %21, !prof !11

19:                                               ; preds = %16
  %20 = add nsw i32 %17, -1
  store i32 %20, ptr %0, align 4, !tbaa !8
  br label %lean_dec.exit

21:                                               ; preds = %16
  %.not.i6 = icmp eq i32 %17, 0
  br i1 %.not.i6, label %lean_dec.exit, label %22

22:                                               ; preds = %21
  tail call void @lean_dec_ref_cold(ptr noundef nonnull %0) #8
  br label %lean_dec.exit

lean_dec.exit:                                    ; preds = %22, %21, %19, %lean_dec.exit5
  ret ptr %.0.i
}